target datalayout = "e-m:e-p270:32:32-p271:32:32-p272:64:64-i64:64-i128:128-f80:128-n8:16:32:64-S128"
target triple = "x86_64-unknown-linux-gnu"

@.str.1 = private unnamed_addr constant [5 x i8] c"help\00", align 1

; Function Attrs: nounwind sspstrong uwtable
define dso_local i32 @tpm_config_parse(ptr noundef %opts_list, ptr noundef %optstr) #0 {
entry:
  %retval = alloca i32, align 4
  %opts_list.addr = alloca ptr, align 8
  %optstr.addr = alloca ptr, align 8
  %opts = alloca ptr, align 8
  store ptr %opts_list, ptr %opts_list.addr, align 8
  store ptr %optstr, ptr %optstr.addr, align 8
  %0 = load ptr, ptr %optstr.addr, align 8
  %call = call i32 @strcmp(ptr noundef %0, ptr noundef @.str.1) #4
  %tobool = icmp ne i32 %call, 0
  br i1 %tobool, label %if.end, label %if.then

if.then:                                          ; preds = %entry
  call void @tpm_display_backend_drivers()
  store i32 -1, ptr %retval, align 4
  br label %return

if.end:                                           ; preds = %entry
  %1 = load ptr, ptr %opts_list.addr, align 8
  %2 = load ptr, ptr %optstr.addr, align 8
  %call1 = call ptr @qemu_opts_parse_noisily(ptr noundef %1, ptr noundef %2, i1 noundef zeroext true)
  store ptr %call1, ptr %opts, align 8
  %3 = load ptr, ptr %opts, align 8
  %tobool2 = icmp ne ptr %3, null
  br i1 %tobool2, label %if.end4, label %if.then3

if.then3:                                         ; preds = %if.end
  store i32 -1, ptr %retval, align 4
  br label %return

if.end4:                                          ; preds = %if.end
  store i32 0, ptr %retval, align 4
  br label %return

return:                                           ; preds = %if.end4, %if.then3, %if.then
  %4 = load i32, ptr %retval, align 4
  ret i32 %4
}