; Function Attrs: nounwind sspstrong uwtable
define dso_local range(i32 -1, 1) i32 @tpm_config_parse(ptr noundef %opts_list, ptr noundef %optstr) local_unnamed_addr #2 {
entry:
  %call = tail call i32 @strcmp(ptr noundef nonnull dereferenceable(1) %optstr, ptr noundef nonnull dereferenceable(5) @.str.1) #6
  %tobool.not = icmp eq i32 %call, 0
  br i1 %tobool.not, label %if.then, label %if.end

if.then:                                          ; preds = %entry
  tail call fastcc void @tpm_display_backend_drivers()
  br label %return

if.end:                                           ; preds = %entry
  %call1 = tail call ptr @qemu_opts_parse_noisily(ptr noundef %opts_list, ptr noundef nonnull %optstr, i1 noundef zeroext true) #7
  %tobool2.not = icmp eq ptr %call1, null
  %. = sext i1 %tobool2.not to i32
  br label %return

return:                                           ; preds = %if.end, %if.then
  %retval.0 = phi i32 [ -1, %if.then ], [ %., %if.end ]
  ret i32 %retval.0
}